target datalayout = "e-m:e-p270:32:32-p271:32:32-p272:64:64-i64:64-i128:128-f80:128-n8:16:32:64-S128"
target triple = "x86_64-pc-linux-gnu"

%"class.icu_77::UnicodeString" = type { %"class.icu_77::Replaceable", %"union.icu_77::UnicodeString::StackBufferOrFields" }
%"class.icu_77::Replaceable" = type { %"class.icu_77::UObject" }
%"class.icu_77::UObject" = type { ptr }
%"union.icu_77::UnicodeString::StackBufferOrFields" = type { %struct.anon.0, [32 x i8] }
%struct.anon.0 = type { i16, i32, i32, ptr }
%"class.icu_77::CollationDataBuilder" = type { %"class.icu_77::UObject", ptr, ptr, ptr, ptr, %"class.icu_77::UVector32", %"class.icu_77::UVector64", %"class.icu_77::UVector", %"class.icu_77::UnicodeSet", %"class.icu_77::UnicodeString", i32, [4 x i8], %"class.icu_77::UnicodeSet", i8, i8, i8, ptr, ptr }
%"class.icu_77::UVector32" = type { %"class.icu_77::UObject", i32, i32, i32, ptr }
%"class.icu_77::UVector64" = type { %"class.icu_77::UObject", i32, i32, i32, ptr }
%"class.icu_77::UVector" = type { %"class.icu_77::UObject", i32, i32, ptr, ptr, ptr }
%"class.icu_77::UnicodeSet" = type <{ %"class.icu_77::UnicodeFilter", ptr, i32, i32, i8, [7 x i8], ptr, ptr, i32, [4 x i8], ptr, i32, [4 x i8], ptr, ptr, [25 x i32], [4 x i8] }>
%"class.icu_77::UnicodeFilter" = type { %"class.icu_77::UnicodeFunctor", %"class.icu_77::UnicodeMatcher" }
%"class.icu_77::UnicodeFunctor" = type { %"class.icu_77::UObject" }
%"class.icu_77::UnicodeMatcher" = type { ptr }

@_ZN6icu_7728DataBuilderCollationIteratorC1ERNS_20CollationDataBuilderE = unnamed_addr alias void (ptr, ptr), ptr @_ZN6icu_7728DataBuilderCollationIteratorC2ERNS_20CollationDataBuilderE

; Function Attrs: inlinehint mustprogress nounwind uwtable
define linkonce_odr noundef i32 @_ZNK6icu_7713UnicodeString14getShortLengthEv(ptr noundef nonnull align 8 dereferenceable(64) %0) #3 comdat align 2 {
  %2 = alloca ptr, align 8
  store ptr %0, ptr %2, align 8, !tbaa !92
  %3 = load ptr, ptr %2, align 8
  %4 = getelementptr inbounds nuw %"class.icu_77::UnicodeString", ptr %3, i32 0, i32 1
  %5 = getelementptr inbounds nuw %struct.anon.0, ptr %4, i32 0, i32 0
  %6 = load i16, ptr %5, align 8, !tbaa !64
  %7 = sext i16 %6 to i32
  %8 = ashr i32 %7, 5
  ret i32 %8
}

; Function Attrs: inlinehint mustprogress nounwind uwtable
define linkonce_odr noundef signext i8 @_ZNK6icu_7713UnicodeString14hasShortLengthEv(ptr noundef nonnull align 8 dereferenceable(64) %0) #3 comdat align 2 {
  %2 = alloca ptr, align 8
  store ptr %0, ptr %2, align 8, !tbaa !92
  %3 = load ptr, ptr %2, align 8
  %4 = getelementptr inbounds nuw %"class.icu_77::UnicodeString", ptr %3, i32 0, i32 1
  %5 = getelementptr inbounds nuw %struct.anon.0, ptr %4, i32 0, i32 0
  %6 = load i16, ptr %5, align 8, !tbaa !64
  %7 = sext i16 %6 to i32
  %8 = icmp sge i32 %7, 0
  %9 = zext i1 %8 to i8
  ret i8 %9
}

; Function Attrs: mustprogress uwtable
define noundef i32 @_ZN6icu_7720CollationDataBuilder6getCEsERKNS_13UnicodeStringEiPli(ptr noundef nonnull align 8 dereferenceable(640) %0, ptr noundef nonnull align 8 dereferenceable(64) %1, i32 noundef %2, ptr noundef %3, i32 noundef %4) #4 align 2 personality ptr @__gxx_personality_v0 {
  %6 = alloca i32, align 4
  %7 = alloca ptr, align 8
  %8 = alloca ptr, align 8
  %9 = alloca i32, align 4
  %10 = alloca ptr, align 8
  %11 = alloca i32, align 4
  %12 = alloca ptr, align 8
  %13 = alloca i1, align 1
  %14 = alloca ptr, align 8
  %15 = alloca i32, align 4
  store ptr %0, ptr %7, align 8, !tbaa !13
  store ptr %1, ptr %8, align 8, !tbaa !92
  store i32 %2, ptr %9, align 4, !tbaa !57
  store ptr %3, ptr %10, align 8, !tbaa !93
  store i32 %4, ptr %11, align 4, !tbaa !57
  %16 = load ptr, ptr %7, align 8
  %17 = getelementptr inbounds nuw %"class.icu_77::CollationDataBuilder", ptr %16, i32 0, i32 17
  %18 = load ptr, ptr %17, align 8, !tbaa !136
  %19 = icmp eq ptr %18, null
  br i1 %19, label %20, label %41

20:                                               ; preds = %5
  %21 = call noundef ptr @_ZN6icu_777UMemorynwEm(i64 noundef 832) #11
  %22 = icmp eq ptr %21, null
  store i1 false, ptr %13, align 1
  br i1 %22, label %25, label %23

23:                                               ; preds = %20
  store ptr %21, ptr %12, align 8
  store i1 true, ptr %13, align 1
  invoke void @_ZN6icu_7728DataBuilderCollationIteratorC1ERNS_20CollationDataBuilderE(ptr noundef nonnull align 8 dereferenceable(828) %21, ptr noundef nonnull align 8 dereferenceable(640) %16)
          to label %24 unwind label %32

24:                                               ; preds = %23
  br label %25

25:                                               ; preds = %24, %20
  %26 = phi ptr [ %21, %24 ], [ null, %20 ]
  %27 = getelementptr inbounds nuw %"class.icu_77::CollationDataBuilder", ptr %16, i32 0, i32 17
  store ptr %26, ptr %27, align 8, !tbaa !136
  %28 = getelementptr inbounds nuw %"class.icu_77::CollationDataBuilder", ptr %16, i32 0, i32 17
  %29 = load ptr, ptr %28, align 8, !tbaa !136
  %30 = icmp eq ptr %29, null
  br i1 %30, label %31, label %40

31:                                               ; preds = %25
  store i32 0, ptr %6, align 4
  br label %49

32:                                               ; preds = %23
  %33 = landingpad { ptr, i32 }
          cleanup
  %34 = extractvalue { ptr, i32 } %33, 0
  store ptr %34, ptr %14, align 8
  %35 = extractvalue { ptr, i32 } %33, 1
  store i32 %35, ptr %15, align 4
  %36 = load i1, ptr %13, align 1
  br i1 %36, label %37, label %39

37:                                               ; preds = %32
  %38 = load ptr, ptr %12, align 8
  call void @_ZN6icu_777UMemorydlEPv(ptr noundef %38) #11
  br label %39

39:                                               ; preds = %37, %32
  br label %51

40:                                               ; preds = %25
  br label %41

41:                                               ; preds = %40, %5
  %42 = getelementptr inbounds nuw %"class.icu_77::CollationDataBuilder", ptr %16, i32 0, i32 17
  %43 = load ptr, ptr %42, align 8, !tbaa !136
  %44 = load ptr, ptr %8, align 8, !tbaa !92
  %45 = load i32, ptr %9, align 4, !tbaa !57
  %46 = load ptr, ptr %10, align 8, !tbaa !93
  %47 = load i32, ptr %11, align 4, !tbaa !57
  %48 = call noundef i32 @_ZN6icu_7728DataBuilderCollationIterator8fetchCEsERKNS_13UnicodeStringEiPli(ptr noundef nonnull align 8 dereferenceable(828) %43, ptr noundef nonnull align 8 dereferenceable(64) %44, i32 noundef %45, ptr noundef %46, i32 noundef %47)
  store i32 %48, ptr %6, align 4
  br label %49

49:                                               ; preds = %41, %31
  %50 = load i32, ptr %6, align 4
  ret i32 %50

51:                                               ; preds = %39
  %52 = load ptr, ptr %14, align 8
  %53 = load i32, ptr %15, align 4
  %54 = insertvalue { ptr, i32 } poison, ptr %52, 0
  %55 = insertvalue { ptr, i32 } %54, i32 %53, 1
  resume { ptr, i32 } %55
}

; Function Attrs: inlinehint mustprogress uwtable
define linkonce_odr noundef i32 @_ZNK6icu_7713UnicodeString6lengthEv(ptr noundef nonnull align 8 dereferenceable(64) %0) #7 comdat align 2 {
  %2 = alloca ptr, align 8
  store ptr %0, ptr %2, align 8, !tbaa !92
  %3 = load ptr, ptr %2, align 8
  %4 = call noundef signext i8 @_ZNK6icu_7713UnicodeString14hasShortLengthEv(ptr noundef nonnull align 8 dereferenceable(64) %3)
  %5 = icmp ne i8 %4, 0
  br i1 %5, label %6, label %8

6:                                                ; preds = %1
  %7 = call noundef i32 @_ZNK6icu_7713UnicodeString14getShortLengthEv(ptr noundef nonnull align 8 dereferenceable(64) %3)
  br label %12

8:                                                ; preds = %1
  %9 = getelementptr inbounds nuw %"class.icu_77::UnicodeString", ptr %3, i32 0, i32 1
  %10 = getelementptr inbounds nuw %struct.anon.0, ptr %9, i32 0, i32 1
  %11 = load i32, ptr %10, align 4, !tbaa !64
  br label %12

12:                                               ; preds = %8, %6
  %13 = phi i32 [ %7, %6 ], [ %11, %8 ]
  ret i32 %13
}

; Function Attrs: mustprogress uwtable
define noundef i32 @_ZN6icu_7720CollationDataBuilder6getCEsERKNS_13UnicodeStringES3_Pli(ptr noundef nonnull align 8 dereferenceable(640) %0, ptr noundef nonnull align 8 dereferenceable(64) %1, ptr noundef nonnull align 8 dereferenceable(64) %2, ptr noundef %3, i32 noundef %4) #4 align 2 personality ptr @__gxx_personality_v0 {
  %6 = alloca i32, align 4
  %7 = alloca ptr, align 8
  %8 = alloca ptr, align 8
  %9 = alloca ptr, align 8
  %10 = alloca ptr, align 8
  %11 = alloca i32, align 4
  %12 = alloca i32, align 4
  %13 = alloca i32, align 4
  %14 = alloca %"class.icu_77::UnicodeString", align 8
  %15 = alloca ptr, align 8
  %16 = alloca i32, align 4
  store ptr %0, ptr %7, align 8, !tbaa !13
  store ptr %1, ptr %8, align 8, !tbaa !92
  store ptr %2, ptr %9, align 8, !tbaa !92
  store ptr %3, ptr %10, align 8, !tbaa !93
  store i32 %4, ptr %11, align 4, !tbaa !57
  %17 = load ptr, ptr %7, align 8
  call void @llvm.lifetime.start.p0(i64 4, ptr %12) #11
  %18 = load ptr, ptr %8, align 8, !tbaa !92
  %19 = call noundef i32 @_ZNK6icu_7713UnicodeString6lengthEv(ptr noundef nonnull align 8 dereferenceable(64) %18)
  store i32 %19, ptr %12, align 4, !tbaa !57
  %20 = load i32, ptr %12, align 4, !tbaa !57
  %21 = icmp eq i32 %20, 0
  br i1 %21, label %22, label %27

22:                                               ; preds = %5
  %23 = load ptr, ptr %9, align 8, !tbaa !92
  %24 = load ptr, ptr %10, align 8, !tbaa !93
  %25 = load i32, ptr %11, align 4, !tbaa !57
  %26 = call noundef i32 @_ZN6icu_7720CollationDataBuilder6getCEsERKNS_13UnicodeStringEiPli(ptr noundef nonnull align 8 dereferenceable(640) %17, ptr noundef nonnull align 8 dereferenceable(64) %23, i32 noundef 0, ptr noundef %24, i32 noundef %25)
  store i32 %26, ptr %6, align 4
  store i32 1, ptr %13, align 4
  br label %39

27:                                               ; preds = %5
  call void @llvm.lifetime.start.p0(i64 64, ptr %14) #11
  %28 = load ptr, ptr %8, align 8, !tbaa !92
  %29 = load ptr, ptr %9, align 8, !tbaa !92
  call void @_ZN6icu_77plERKNS_13UnicodeStringES2_(ptr dead_on_unwind writable sret(%"class.icu_77::UnicodeString") align 8 %14, ptr noundef nonnull align 8 dereferenceable(64) %28, ptr noundef nonnull align 8 dereferenceable(64) %29)
  %30 = load i32, ptr %12, align 4, !tbaa !57
  %31 = load ptr, ptr %10, align 8, !tbaa !93
  %32 = load i32, ptr %11, align 4, !tbaa !57
  %33 = invoke noundef i32 @_ZN6icu_7720CollationDataBuilder6getCEsERKNS_13UnicodeStringEiPli(ptr noundef nonnull align 8 dereferenceable(640) %17, ptr noundef nonnull align 8 dereferenceable(64) %14, i32 noundef %30, ptr noundef %31, i32 noundef %32)
          to label %34 unwind label %35

34:                                               ; preds = %27
  store i32 %33, ptr %6, align 4
  call void @_ZN6icu_7713UnicodeStringD1Ev(ptr noundef nonnull align 8 dereferenceable(64) %14) #11
  call void @llvm.lifetime.end.p0(i64 64, ptr %14) #11
  store i32 1, ptr %13, align 4
  br label %39

35:                                               ; preds = %27
  %36 = landingpad { ptr, i32 }
          cleanup
  %37 = extractvalue { ptr, i32 } %36, 0
  store ptr %37, ptr %15, align 8
  %38 = extractvalue { ptr, i32 } %36, 1
  store i32 %38, ptr %16, align 4
  call void @_ZN6icu_7713UnicodeStringD1Ev(ptr noundef nonnull align 8 dereferenceable(64) %14) #11
  call void @llvm.lifetime.end.p0(i64 64, ptr %14) #11
  call void @llvm.lifetime.end.p0(i64 4, ptr %12) #11
  br label %41

39:                                               ; preds = %34, %22
  call void @llvm.lifetime.end.p0(i64 4, ptr %12) #11
  %40 = load i32, ptr %6, align 4
  ret i32 %40

41:                                               ; preds = %35
  %42 = load ptr, ptr %15, align 8
  %43 = load i32, ptr %16, align 4
  %44 = insertvalue { ptr, i32 } poison, ptr %42, 0
  %45 = insertvalue { ptr, i32 } %44, i32 %43, 1
  resume { ptr, i32 } %45
}