; Function Attrs: mustprogress uwtable
define noundef i32 @_ZN6icu_7720CollationDataBuilder6getCEsERKNS_13UnicodeStringES3_Pli(ptr noundef nonnull align 8 dereferenceable(640) %0, ptr noundef nonnull align 8 dereferenceable(64) %1, ptr noundef nonnull align 8 dereferenceable(64) %2, ptr noundef writeonly captures(none) %3, i32 noundef %4) local_unnamed_addr #6 align 2 personality ptr @__gxx_personality_v0 {
  %6 = alloca %"class.icu_77::UnicodeString", align 8
  %7 = getelementptr inbounds nuw i8, ptr %1, i64 8
  %8 = load i16, ptr %7, align 8, !tbaa !74
  %9 = icmp slt i16 %8, 0
  %10 = ashr i16 %8, 5
  %11 = sext i16 %10 to i32
  %12 = getelementptr inbounds nuw i8, ptr %1, i64 12
  %13 = load i32, ptr %12, align 4
  %14 = select i1 %9, i32 %13, i32 %11
  %15 = icmp eq i32 %14, 0
  br i1 %15, label %16, label %30

16:                                               ; preds = %5
  %17 = getelementptr inbounds nuw i8, ptr %0, i64 632
  %18 = load ptr, ptr %17, align 8, !tbaa !122
  %19 = icmp eq ptr %18, null
  br i1 %19, label %20, label %27

20:                                               ; preds = %16
  %21 = tail call noundef ptr @_ZN6icu_777UMemorynwEm(i64 noundef 832) #19
  %22 = icmp eq ptr %21, null
  br i1 %22, label %.thread.i, label %23

.thread.i:                                        ; preds = %20
  store ptr null, ptr %17, align 8, !tbaa !122
  br label %_ZN6icu_7720CollationDataBuilder6getCEsERKNS_13UnicodeStringEiPli.exit

23:                                               ; preds = %20
  invoke void @_ZN6icu_7728DataBuilderCollationIteratorC1ERNS_20CollationDataBuilderE(ptr noundef nonnull align 8 dereferenceable(828) %21, ptr noundef nonnull align 8 dereferenceable(640) %0)
          to label %24 unwind label %25

24:                                               ; preds = %23
  store ptr %21, ptr %17, align 8, !tbaa !122
  br label %27

common.resume:                                    ; preds = %.body, %25
  %common.resume.op = phi { ptr, i32 } [ %26, %25 ], [ %eh.lpad-body, %.body ]
  resume { ptr, i32 } %common.resume.op

25:                                               ; preds = %23
  %26 = landingpad { ptr, i32 }
          cleanup
  tail call void @_ZN6icu_777UMemorydlEPv(ptr noundef nonnull %21) #19
  br label %common.resume

27:                                               ; preds = %24, %16
  %28 = phi ptr [ %21, %24 ], [ %18, %16 ]
  %29 = tail call noundef i32 @_ZN6icu_7728DataBuilderCollationIterator8fetchCEsERKNS_13UnicodeStringEiPli(ptr noundef nonnull align 8 dereferenceable(828) %28, ptr noundef nonnull align 8 dereferenceable(64) %2, i32 noundef 0, ptr noundef %3, i32 noundef %4)
  br label %_ZN6icu_7720CollationDataBuilder6getCEsERKNS_13UnicodeStringEiPli.exit

30:                                               ; preds = %5
  call void @llvm.lifetime.start.p0(i64 64, ptr nonnull %6) #19
  call void @_ZN6icu_77plERKNS_13UnicodeStringES2_(ptr dead_on_unwind nonnull writable sret(%"class.icu_77::UnicodeString") align 8 %6, ptr noundef nonnull align 8 dereferenceable(64) %1, ptr noundef nonnull align 8 dereferenceable(64) %2)
  %31 = getelementptr inbounds nuw i8, ptr %0, i64 632
  %32 = load ptr, ptr %31, align 8, !tbaa !122
  %33 = icmp eq ptr %32, null
  br i1 %33, label %34, label %41

34:                                               ; preds = %30
  %35 = call noundef ptr @_ZN6icu_777UMemorynwEm(i64 noundef 832) #19
  %36 = icmp eq ptr %35, null
  br i1 %36, label %.thread.i15, label %37

.thread.i15:                                      ; preds = %34
  store ptr null, ptr %31, align 8, !tbaa !122
  br label %_ZN6icu_7720CollationDataBuilder6getCEsERKNS_13UnicodeStringEiPli.exit16

37:                                               ; preds = %34
  invoke void @_ZN6icu_7728DataBuilderCollationIteratorC1ERNS_20CollationDataBuilderE(ptr noundef nonnull align 8 dereferenceable(828) %35, ptr noundef nonnull align 8 dereferenceable(640) %0)
          to label %38 unwind label %39

38:                                               ; preds = %37
  store ptr %35, ptr %31, align 8, !tbaa !122
  br label %41

39:                                               ; preds = %37
  %40 = landingpad { ptr, i32 }
          cleanup
  call void @_ZN6icu_777UMemorydlEPv(ptr noundef nonnull %35) #19
  br label %.body

41:                                               ; preds = %38, %30
  %42 = phi ptr [ %35, %38 ], [ %32, %30 ]
  %43 = invoke noundef i32 @_ZN6icu_7728DataBuilderCollationIterator8fetchCEsERKNS_13UnicodeStringEiPli(ptr noundef nonnull align 8 dereferenceable(828) %42, ptr noundef nonnull align 8 dereferenceable(64) %6, i32 noundef %14, ptr noundef %3, i32 noundef %4)
          to label %_ZN6icu_7720CollationDataBuilder6getCEsERKNS_13UnicodeStringEiPli.exit16 unwind label %44

_ZN6icu_7720CollationDataBuilder6getCEsERKNS_13UnicodeStringEiPli.exit16: ; preds = %.thread.i15, %41
  %.0.i14 = phi i32 [ 0, %.thread.i15 ], [ %43, %41 ]
  call void @_ZN6icu_7713UnicodeStringD1Ev(ptr noundef nonnull align 8 dereferenceable(64) %6) #19
  call void @llvm.lifetime.end.p0(i64 64, ptr nonnull %6) #19
  br label %_ZN6icu_7720CollationDataBuilder6getCEsERKNS_13UnicodeStringEiPli.exit

44:                                               ; preds = %41
  %45 = landingpad { ptr, i32 }
          cleanup
  br label %.body

.body:                                            ; preds = %39, %44
  %eh.lpad-body = phi { ptr, i32 } [ %45, %44 ], [ %40, %39 ]
  call void @_ZN6icu_7713UnicodeStringD1Ev(ptr noundef nonnull align 8 dereferenceable(64) %6) #19
  call void @llvm.lifetime.end.p0(i64 64, ptr nonnull %6) #19
  br label %common.resume

_ZN6icu_7720CollationDataBuilder6getCEsERKNS_13UnicodeStringEiPli.exit: ; preds = %27, %.thread.i, %_ZN6icu_7720CollationDataBuilder6getCEsERKNS_13UnicodeStringEiPli.exit16
  %.0 = phi i32 [ %.0.i14, %_ZN6icu_7720CollationDataBuilder6getCEsERKNS_13UnicodeStringEiPli.exit16 ], [ %29, %27 ], [ 0, %.thread.i ]
  ret i32 %.0
}